target datalayout = "e-m:e-p270:32:32-p271:32:32-p272:64:64-i64:64-i128:128-f80:128-n8:16:32:64-S128"
target triple = "x86_64-unknown-linux-gnu"

%struct.rcu_head = type { ptr, ptr }
%struct.QTailQLink = type { ptr, ptr }
%struct.BusState = type { %struct.Object, ptr, ptr, ptr, i32, i8, i8, i32, %union.BusChildHead, %struct.BusStateEntry, %struct.ResettableState }
%struct.Object = type { ptr, ptr, ptr, i32, ptr }
%union.BusChildHead = type { %struct.QTailQLink }
%struct.BusStateEntry = type { ptr, ptr }
%struct.ResettableState = type { i32, i8, i8 }
%struct.VirtioBusState = type { %struct.BusState, i8, i32 }
%struct.BusChild = type { %struct.rcu_head, ptr, i32, %union.anon.4 }
%union.anon.4 = type { %struct.QTailQLink }

; Function Attrs: nounwind sspstrong uwtable
define internal ptr @virtio_bus_get_device(ptr noundef %bus) #0 {
entry:
  %bus.addr = alloca ptr, align 8
  %qbus = alloca ptr, align 8
  %kid = alloca ptr, align 8
  %qdev = alloca ptr, align 8
  store ptr %bus, ptr %bus.addr, align 8
  %0 = load ptr, ptr %bus.addr, align 8
  %parent_obj = getelementptr inbounds %struct.VirtioBusState, ptr %0, i32 0, i32 0
  store ptr %parent_obj, ptr %qbus, align 8
  %1 = load ptr, ptr %qbus, align 8
  %children = getelementptr inbounds %struct.BusState, ptr %1, i32 0, i32 8
  %2 = load ptr, ptr %children, align 8
  store ptr %2, ptr %kid, align 8
  %3 = load ptr, ptr %kid, align 8
  %tobool = icmp ne ptr %3, null
  br i1 %tobool, label %cond.true, label %cond.false

cond.true:                                        ; preds = %entry
  %4 = load ptr, ptr %kid, align 8
  %child = getelementptr inbounds %struct.BusChild, ptr %4, i32 0, i32 1
  %5 = load ptr, ptr %child, align 8
  br label %cond.end

cond.false:                                       ; preds = %entry
  br label %cond.end

cond.end:                                         ; preds = %cond.false, %cond.true
  %cond = phi ptr [ %5, %cond.true ], [ null, %cond.false ]
  store ptr %cond, ptr %qdev, align 8
  %6 = load ptr, ptr %qdev, align 8
  ret ptr %6
}

; Function Attrs: nounwind sspstrong uwtable
define dso_local void @virtio_bus_cleanup_host_notifier(ptr noundef %bus, i32 noundef %n) #0 {
entry:
  %bus.addr = alloca ptr, align 8
  %n.addr = alloca i32, align 4
  %vdev = alloca ptr, align 8
  %vq = alloca ptr, align 8
  %notifier = alloca ptr, align 8
  store ptr %bus, ptr %bus.addr, align 8
  store i32 %n, ptr %n.addr, align 4
  %0 = load ptr, ptr %bus.addr, align 8
  %call = call ptr @virtio_bus_get_device(ptr noundef %0)
  store ptr %call, ptr %vdev, align 8
  %1 = load ptr, ptr %vdev, align 8
  %2 = load i32, ptr %n.addr, align 4
  %call1 = call ptr @virtio_get_queue(ptr noundef %1, i32 noundef %2)
  store ptr %call1, ptr %vq, align 8
  %3 = load ptr, ptr %vq, align 8
  %call2 = call ptr @virtio_queue_get_host_notifier(ptr noundef %3)
  store ptr %call2, ptr %notifier, align 8
  %4 = load ptr, ptr %notifier, align 8
  call void @virtio_queue_host_notifier_read(ptr noundef %4)
  %5 = load ptr, ptr %notifier, align 8
  call void @event_notifier_cleanup(ptr noundef %5)
  ret void
}