; Function Attrs: nounwind sspstrong uwtable
define dso_local void @virtio_bus_cleanup_host_notifier(ptr noundef readonly captures(none) %bus, i32 noundef %n) local_unnamed_addr #0 {
entry:
  %0 = getelementptr i8, ptr %bus, i64 80
  %bus.val = load ptr, ptr %0, align 8
  %tobool.not.i = icmp eq ptr %bus.val, null
  br i1 %tobool.not.i, label %virtio_bus_get_device.exit, label %cond.true.i

cond.true.i:                                      ; preds = %entry
  %child.i = getelementptr inbounds nuw i8, ptr %bus.val, i64 16
  %1 = load ptr, ptr %child.i, align 8
  br label %virtio_bus_get_device.exit

virtio_bus_get_device.exit:                       ; preds = %entry, %cond.true.i
  %cond.i = phi ptr [ %1, %cond.true.i ], [ null, %entry ]
  %call1 = tail call ptr @virtio_get_queue(ptr noundef %cond.i, i32 noundef %n) #5
  %call2 = tail call ptr @virtio_queue_get_host_notifier(ptr noundef %call1) #5
  tail call void @virtio_queue_host_notifier_read(ptr noundef %call2) #5
  tail call void @event_notifier_cleanup(ptr noundef %call2) #5
  ret void
}